; ModuleID = '54/130.c'
source_filename = "54/130.c"
target datalayout = "e-m:e-p270:32:32-p271:32:32-p272:64:64-i64:64-f80:128-n8:16:32:64-S128"
target triple = "x86_64-pc-linux-gnu"

@.str = private unnamed_addr constant [5 x i8] c"%d%d\00", align 1
@.str.1 = private unnamed_addr constant [3 x i8] c"%d\00", align 1

; Function Attrs: noinline nounwind uwtable
define dso_local void @main() #0 {
  %1 = alloca i32, align 4
  %2 = alloca i32, align 4
  %3 = alloca i32, align 4
  %4 = alloca i32, align 4
  %5 = alloca i32, align 4
  %6 = call i32 (i8*, ...) @__isoc99_scanf(i8* getelementptr inbounds ([5 x i8], [5 x i8]* @.str, i64 0, i64 0), i32* %1, i32* %2)
  %7 = load i32, i32* %1, align 4
  store i32 %7, i32* %3, align 4
  br label %8

8:                                                ; preds = %37, %0
  %9 = load i32, i32* %3, align 4
  store i32 %9, i32* %5, align 4
  store i32 1, i32* %4, align 4
  br label %10

10:                                               ; preds = %41, %8
  %11 = load i32, i32* %4, align 4
  %12 = load i32, i32* %1, align 4
  %13 = icmp sle i32 %11, %12
  br i1 %13, label %14, label %44

14:                                               ; preds = %10
  %15 = load i32, i32* %5, align 4
  %16 = load i32, i32* %1, align 4
  %17 = srem i32 %15, %16
  %18 = load i32, i32* %2, align 4
  %19 = icmp eq i32 %17, %18
  br i1 %19, label %20, label %37

20:                                               ; preds = %14
  %21 = load i32, i32* %5, align 4
  %22 = load i32, i32* %2, align 4
  %23 = sub nsw i32 %21, %22
  %24 = load i32, i32* %5, align 4
  %25 = load i32, i32* %1, align 4
  %26 = sdiv i32 %24, %25
  %27 = sub nsw i32 %23, %26
  %28 = icmp ne i32 %27, 0
  br i1 %28, label %29, label %37

29:                                               ; preds = %20
  %30 = load i32, i32* %5, align 4
  %31 = load i32, i32* %2, align 4
  %32 = sub nsw i32 %30, %31
  %33 = load i32, i32* %5, align 4
  %34 = load i32, i32* %1, align 4
  %35 = sdiv i32 %33, %34
  %36 = sub nsw i32 %32, %35
  store i32 %36, i32* %5, align 4
  br label %40

37:                                               ; preds = %20, %14
  %38 = load i32, i32* %3, align 4
  %39 = add nsw i32 %38, 1
  store i32 %39, i32* %3, align 4
  br label %8

40:                                               ; preds = %29
  br label %41

41:                                               ; preds = %40
  %42 = load i32, i32* %4, align 4
  %43 = add nsw i32 %42, 1
  store i32 %43, i32* %4, align 4
  br label %10

44:                                               ; preds = %10
  %45 = load i32, i32* %3, align 4
  %46 = call i32 (i8*, ...) @printf(i8* getelementptr inbounds ([3 x i8], [3 x i8]* @.str.1, i64 0, i64 0), i32 %45)
  ret void
}

declare dso_local i32 @__isoc99_scanf(i8*, ...) #1

declare dso_local i32 @printf(i8*, ...) #1


!llvm.module.flags = !{!0}
!llvm.ident = !{!1}

!0 = !{i32 1, !"wchar_size", i32 4}
!1 = !{!"clang version 10.0.0-4ubuntu1 "}
